

Microchip MPLAB XC8 Assembler V2.30 build 20200825195618 
                                                                                               Fri May 14 03:30:31 2021

Microchip MPLAB XC8 C Compiler v2.30 (Free license) build 20200825195618 Og1 
     1                           	processor	16F877A
     2                           	pagewidth 120
     3                           	opt	flic
     4                           	psect	strings,global,class=STRING,delta=2,noexec
     5                           	psect	cinit,global,class=CODE,merge=1,delta=2
     6                           	psect	bssCOMMON,global,class=COMMON,space=1,delta=1,noexec
     7                           	psect	cstackCOMMON,global,class=COMMON,space=1,delta=1,noexec
     8                           	psect	maintext,global,class=CODE,split=1,delta=2
     9                           	psect	text1,local,class=CODE,merge=1,delta=2
    10                           	psect	text2,local,class=CODE,merge=1,delta=2
    11                           	psect	text3,local,class=CODE,merge=1,delta=2
    12                           	psect	text4,local,class=CODE,merge=1,delta=2
    13                           	psect	config,global,abs,ovrld,class=CONFIG,space=4,delta=2,noexec
    14                           	dabs	1,0x7E,2
    15  0000                     
    16                           ; Version 2.20
    17                           ; Generated 12/02/2020 GMT
    18                           ; 
    19                           ; Copyright © 2020, Microchip Technology Inc. and its subsidiaries ("Microchip")
    20                           ; All rights reserved.
    21                           ; 
    22                           ; This software is developed by Microchip Technology Inc. and its subsidiaries ("Microch
      +                          ip").
    23                           ; 
    24                           ; Redistribution and use in source and binary forms, with or without modification, are
    25                           ; permitted provided that the following conditions are met:
    26                           ; 
    27                           ;     1. Redistributions of source code must retain the above copyright notice, this lis
      +                          t of
    28                           ;        conditions and the following disclaimer.
    29                           ; 
    30                           ;     2. Redistributions in binary form must reproduce the above copyright notice, this 
      +                          list
    31                           ;        of conditions and the following disclaimer in the documentation and/or other
    32                           ;        materials provided with the distribution.
    33                           ; 
    34                           ;     3. Microchip's name may not be used to endorse or promote products derived from th
      +                          is
    35                           ;        software without specific prior written permission.
    36                           ; 
    37                           ; THIS SOFTWARE IS PROVIDED BY MICROCHIP "AS IS" AND ANY EXPRESS OR IMPLIED WARRANTIES,
    38                           ; INCLUDING, BUT NOT LIMITED TO, THE IMPLIED WARRANTIES OF MERCHANTABILITY AND FITNESS F
      +                          OR
    39                           ; PURPOSE ARE DISCLAIMED.  IN NO EVENT SHALL MICROCHIP BE LIABLE FOR ANY DIRECT, INDIREC
      +                          T,
    40                           ; INCIDENTAL, SPECIAL, EXEMPLARY, OR CONSEQUENTIAL DAMAGES (INCLUDING BUT NOT LIMITED TO
    41                           ; PROCUREMENT OF SUBSTITUTE GOODS OR SERVICES; LOSS OF USE, DATA OR PROFITS; OR BUSINESS
    42                           ; INTERRUPTION) HOWSOEVER CAUSED AND ON ANY THEORY OF LIABILITY, WHETHER IN CONTRACT, ST
      +                          RICT
    43                           ; LIABILITY, OR TORT (INCLUDING NEGLIGENCE OR OTHERWISE) ARISING IN ANY WAY OUT OF THE U
      +                          SE OF
    44                           ; THIS SOFTWARE, EVEN IF ADVISED OF THE POSSIBILITY OF SUCH DAMAGE.
    45                           ; 
    46                           ; 
    47                           ; Code-generator required, PIC16F877A Definitions
    48                           ; 
    49                           ; SFR Addresses
    50  0000                     	;# 
    51  0001                     	;# 
    52  0002                     	;# 
    53  0003                     	;# 
    54  0004                     	;# 
    55  0005                     	;# 
    56  0006                     	;# 
    57  0007                     	;# 
    58  0008                     	;# 
    59  0009                     	;# 
    60  000A                     	;# 
    61  000B                     	;# 
    62  000C                     	;# 
    63  000D                     	;# 
    64  000E                     	;# 
    65  000E                     	;# 
    66  000F                     	;# 
    67  0010                     	;# 
    68  0011                     	;# 
    69  0012                     	;# 
    70  0013                     	;# 
    71  0014                     	;# 
    72  0015                     	;# 
    73  0015                     	;# 
    74  0016                     	;# 
    75  0017                     	;# 
    76  0018                     	;# 
    77  0019                     	;# 
    78  001A                     	;# 
    79  001B                     	;# 
    80  001B                     	;# 
    81  001C                     	;# 
    82  001D                     	;# 
    83  001E                     	;# 
    84  001F                     	;# 
    85  0081                     	;# 
    86  0085                     	;# 
    87  0086                     	;# 
    88  0087                     	;# 
    89  0088                     	;# 
    90  0089                     	;# 
    91  008C                     	;# 
    92  008D                     	;# 
    93  008E                     	;# 
    94  0091                     	;# 
    95  0092                     	;# 
    96  0093                     	;# 
    97  0094                     	;# 
    98  0098                     	;# 
    99  0099                     	;# 
   100  009C                     	;# 
   101  009D                     	;# 
   102  009E                     	;# 
   103  009F                     	;# 
   104  010C                     	;# 
   105  010D                     	;# 
   106  010E                     	;# 
   107  010F                     	;# 
   108  018C                     	;# 
   109  018D                     	;# 
   110  0000                     	;# 
   111  0001                     	;# 
   112  0002                     	;# 
   113  0003                     	;# 
   114  0004                     	;# 
   115  0005                     	;# 
   116  0006                     	;# 
   117  0007                     	;# 
   118  0008                     	;# 
   119  0009                     	;# 
   120  000A                     	;# 
   121  000B                     	;# 
   122  000C                     	;# 
   123  000D                     	;# 
   124  000E                     	;# 
   125  000E                     	;# 
   126  000F                     	;# 
   127  0010                     	;# 
   128  0011                     	;# 
   129  0012                     	;# 
   130  0013                     	;# 
   131  0014                     	;# 
   132  0015                     	;# 
   133  0015                     	;# 
   134  0016                     	;# 
   135  0017                     	;# 
   136  0018                     	;# 
   137  0019                     	;# 
   138  001A                     	;# 
   139  001B                     	;# 
   140  001B                     	;# 
   141  001C                     	;# 
   142  001D                     	;# 
   143  001E                     	;# 
   144  001F                     	;# 
   145  0081                     	;# 
   146  0085                     	;# 
   147  0086                     	;# 
   148  0087                     	;# 
   149  0088                     	;# 
   150  0089                     	;# 
   151  008C                     	;# 
   152  008D                     	;# 
   153  008E                     	;# 
   154  0091                     	;# 
   155  0092                     	;# 
   156  0093                     	;# 
   157  0094                     	;# 
   158  0098                     	;# 
   159  0099                     	;# 
   160  009C                     	;# 
   161  009D                     	;# 
   162  009E                     	;# 
   163  009F                     	;# 
   164  010C                     	;# 
   165  010D                     	;# 
   166  010E                     	;# 
   167  010F                     	;# 
   168  018C                     	;# 
   169  018D                     	;# 
   170  001A                     _RCREG	set	26
   171  0019                     _TXREG	set	25
   172  0043                     _RD3	set	67
   173  0041                     _RD1	set	65
   174  0034                     _RB4	set	52
   175  0033                     _RB3	set	51
   176  0031                     _RB1	set	49
   177  0065                     _RCIF	set	101
   178  00C1                     _OERR	set	193
   179  0064                     _TXIF	set	100
   180  00C6                     _RX9	set	198
   181  00C4                     _CREN	set	196
   182  00C7                     _SPEN	set	199
   183  0086                     _TRISB	set	134
   184  0088                     _TRISD	set	136
   185  0099                     _SPBRG	set	153
   186  04C6                     _TX9	set	1222
   187  04C5                     _TXEN	set	1221
   188  04C4                     _SYNC	set	1220
   189  04C2                     _BRGH	set	1218
   190  043F                     _TRISC7	set	1087
   191  043E                     _TRISC6	set	1086
   192                           
   193                           	psect	strings
   194  0003                     __pstrings:
   195  0003                     stringtab:
   196  0003                     __stringtab:
   197  0003                     stringcode:	
   198                           ;	String table - string pointers are 1 byte each
   199                           
   200  0003                     stringdir:
   201  0003  3000               	movlw	high stringdir
   202  0004  008A               	movwf	10
   203  0005  0804               	movf	4,w
   204  0006  0A84               	incf	4,f
   205  0007  0782               	addwf	2,f
   206  0008                     __stringbase:
   207  0008  3400               	retlw	0
   208  0009                     __end_of__stringtab:
   209  0009                     STR_1:
   210  0009  3441               	retlw	65	;'A'
   211  000A  3454               	retlw	84	;'T'
   212  000B  3444               	retlw	68	;'D'
   213  000C  3436               	retlw	54	;'6'
   214  000D  3439               	retlw	57	;'9'
   215  000E  3438               	retlw	56	;'8'
   216  000F  3436               	retlw	54	;'6'
   217  0010  3439               	retlw	57	;'9'
   218  0011  3435               	retlw	53	;'5'
   219  0012  3431               	retlw	49	;'1'
   220  0013  3433               	retlw	51	;'3'
   221  0014  3430               	retlw	48	;'0'
   222  0015  3439               	retlw	57	;'9'
   223  0016  343B               	retlw	59	;';'
   224  0017  340D               	retlw	13
   225  0018  340A               	retlw	10
   226  0019  3400               	retlw	0
   227  0009                     
   228                           	psect	cinit
   229  07FA                     start_initialization:	
   230                           ; #config settings
   231                           
   232  07FA                     __initialization:
   233                           
   234                           ; Clear objects allocated to COMMON
   235  07FA  01FB               	clrf	__pbssCOMMON& (0+127)
   236  07FB  01FC               	clrf	(__pbssCOMMON+1)& (0+127)
   237  07FC                     end_of_initialization:	
   238                           ;End of C runtime variable initialization code
   239                           
   240  07FC                     __end_of__initialization:
   241  07FC  0183               	clrf	3
   242  07FD  120A  118A  2F23   	ljmp	_main	;jump to C main() function
   243                           
   244                           	psect	bssCOMMON
   245  007B                     __pbssCOMMON:
   246  007B                     _a:
   247  007B                     	ds	2
   248                           
   249                           	psect	cstackCOMMON
   250  0070                     __pcstackCOMMON:
   251  0070                     ?_intialize_SIM900:
   252  0070                     ??_intialize_SIM900:	
   253                           ; 1 bytes @ 0x0
   254                           
   255  0070                     ?__SIM900_putch:	
   256                           ; 1 bytes @ 0x0
   257                           
   258  0070                     ??__SIM900_putch:	
   259                           ; 1 bytes @ 0x0
   260                           
   261  0070                     ?__SIM900_print:	
   262                           ; 1 bytes @ 0x0
   263                           
   264  0070                     ?_main:	
   265                           ; 1 bytes @ 0x0
   266                           
   267  0070                     __SIM900_putch@bt:	
   268                           ; 2 bytes @ 0x0
   269                           
   270                           
   271                           ; 1 bytes @ 0x0
   272  0070                     	ds	1
   273  0071                     ??__SIM900_print:
   274                           
   275                           ; 1 bytes @ 0x1
   276  0071                     	ds	1
   277  0072                     __SIM900_print@ptr:
   278                           
   279                           ; 1 bytes @ 0x2
   280  0072                     	ds	1
   281  0073                     ?_SendSMS:
   282  0073                     SendSMS@a:	
   283                           ; 1 bytes @ 0x3
   284                           
   285                           
   286                           ; 2 bytes @ 0x3
   287  0073                     	ds	2
   288  0075                     ??_SendSMS:
   289                           
   290                           ; 1 bytes @ 0x5
   291  0075                     	ds	3
   292  0078                     ??_main:
   293                           
   294                           ; 1 bytes @ 0x8
   295  0078                     	ds	3
   296                           
   297                           	psect	maintext
   298  0723                     __pmaintext:	
   299 ;;
   300 ;;Main: autosize = 0, tempsize = 3, incstack = 0, save=0
   301 ;;
   302 ;; *************** function _main *****************
   303 ;; Defined at:
   304 ;;		line 103 in file "MainFile.c"
   305 ;; Parameters:    Size  Location     Type
   306 ;;		None
   307 ;; Auto vars:     Size  Location     Type
   308 ;;		None
   309 ;; Return value:  Size  Location     Type
   310 ;;                  2   86[None  ] int 
   311 ;; Registers used:
   312 ;;		wreg, fsr0l, fsr0h, status,2, status,0, pclath, cstack
   313 ;; Tracked objects:
   314 ;;		On entry : B00/0
   315 ;;		On exit  : 0/0
   316 ;;		Unchanged: 0/0
   317 ;; Data sizes:     COMMON   BANK0   BANK1   BANK3   BANK2
   318 ;;      Params:         0       0       0       0       0
   319 ;;      Locals:         0       0       0       0       0
   320 ;;      Temps:          3       0       0       0       0
   321 ;;      Totals:         3       0       0       0       0
   322 ;;Total ram usage:        3 bytes
   323 ;; Hardware stack levels required when called:    3
   324 ;; This function calls:
   325 ;;		_SendSMS
   326 ;;		_intialize_SIM900
   327 ;; This function is called by:
   328 ;;		Startup code after reset
   329 ;; This function uses a non-reentrant model
   330 ;;
   331                           
   332                           
   333                           ;psect for function _main
   334  0723                     _main:
   335  0723                     l834:	
   336                           ;incstack = 0
   337                           ; Regs used in _main: [wreg-fsr0h+status,2+status,0+pclath+cstack]
   338                           
   339                           
   340                           ;MainFile.c: 106:     TRISD= 0b00001010;
   341  0723  300A               	movlw	10
   342  0724  1683               	bsf	3,5	;RP0=1, select bank1
   343  0725  1303               	bcf	3,6	;RP1=0, select bank1
   344  0726  0088               	movwf	8	;volatile
   345  0727                     l836:
   346                           
   347                           ;MainFile.c: 107:     TRISB= 0b00000000;
   348  0727  0186               	clrf	6	;volatile
   349  0728                     l838:
   350                           
   351                           ;MainFile.c: 108:     {;MainFile.c: 109:     RB3 = 1;
   352  0728  1283               	bcf	3,5	;RP0=0, select bank0
   353  0729  1303               	bcf	3,6	;RP1=0, select bank0
   354  072A  1586               	bsf	6,3	;volatile
   355  072B                     l840:
   356                           
   357                           ;MainFile.c: 110:     RB4 = 1;
   358  072B  1606               	bsf	6,4	;volatile
   359  072C                     l842:
   360                           
   361                           ;MainFile.c: 111:     _delay((unsigned long)((1000)*(20000000/4000.0)));
   362  072C  301A               	movlw	26
   363  072D  00FA               	movwf	??_main+2
   364  072E  305E               	movlw	94
   365  072F  00F9               	movwf	??_main+1
   366  0730  306E               	movlw	110
   367  0731  00F8               	movwf	??_main
   368  0732                     u157:
   369  0732  0BF8               	decfsz	??_main,f
   370  0733  2F32               	goto	u157
   371  0734  0BF9               	decfsz	??_main+1,f
   372  0735  2F32               	goto	u157
   373  0736  0BFA               	decfsz	??_main+2,f
   374  0737  2F32               	goto	u157
   375  0738  0000               	nop
   376  0739                     l844:
   377                           
   378                           ;MainFile.c: 112:     RB3 = 0;
   379  0739  1283               	bcf	3,5	;RP0=0, select bank0
   380  073A  1303               	bcf	3,6	;RP1=0, select bank0
   381  073B  1186               	bcf	6,3	;volatile
   382  073C                     l846:
   383                           
   384                           ;MainFile.c: 113:     RB4 = 0;
   385  073C  1206               	bcf	6,4	;volatile
   386  073D                     l848:
   387                           
   388                           ;MainFile.c: 114:     intialize_SIM900();
   389  073D  120A  118A  26EC  120A  118A  	fcall	_intialize_SIM900
   390  0742                     l850:
   391                           
   392                           ;MainFile.c: 116:         if (RD1==1)
   393  0742  1283               	bcf	3,5	;RP0=0, select bank0
   394  0743  1303               	bcf	3,6	;RP1=0, select bank0
   395  0744  1C88               	btfss	8,1	;volatile
   396  0745  2F47               	goto	u131
   397  0746  2F48               	goto	u130
   398  0747                     u131:
   399  0747  2F65               	goto	l88
   400  0748                     u130:
   401  0748                     l852:
   402                           
   403                           ;MainFile.c: 117:         {;MainFile.c: 118:             SendSMS(1);
   404  0748  3001               	movlw	1
   405  0749  00F3               	movwf	SendSMS@a
   406  074A  3000               	movlw	0
   407  074B  00F4               	movwf	SendSMS@a+1
   408  074C  120A  118A  278C  120A  118A  	fcall	_SendSMS
   409  0751                     l854:
   410                           
   411                           ;MainFile.c: 119:             RB3=1;
   412  0751  1283               	bcf	3,5	;RP0=0, select bank0
   413  0752  1303               	bcf	3,6	;RP1=0, select bank0
   414  0753  1586               	bsf	6,3	;volatile
   415  0754                     l856:
   416                           
   417                           ;MainFile.c: 120:             _delay((unsigned long)((1000)*(20000000/4000.0)));
   418  0754  301A               	movlw	26
   419  0755  00FA               	movwf	??_main+2
   420  0756  305E               	movlw	94
   421  0757  00F9               	movwf	??_main+1
   422  0758  306E               	movlw	110
   423  0759  00F8               	movwf	??_main
   424  075A                     u167:
   425  075A  0BF8               	decfsz	??_main,f
   426  075B  2F5A               	goto	u167
   427  075C  0BF9               	decfsz	??_main+1,f
   428  075D  2F5A               	goto	u167
   429  075E  0BFA               	decfsz	??_main+2,f
   430  075F  2F5A               	goto	u167
   431  0760  0000               	nop
   432  0761                     l858:
   433                           
   434                           ;MainFile.c: 121:             RB3=0;
   435  0761  1283               	bcf	3,5	;RP0=0, select bank0
   436  0762  1303               	bcf	3,6	;RP1=0, select bank0
   437  0763  1186               	bcf	6,3	;volatile
   438                           
   439                           ;MainFile.c: 122:         }
   440  0764  2F42               	goto	l850
   441  0765                     l88:	
   442                           ;MainFile.c: 123:         else if (RD3==1)
   443                           
   444  0765  1D88               	btfss	8,3	;volatile
   445  0766  2F68               	goto	u141
   446  0767  2F69               	goto	u140
   447  0768                     u141:
   448  0768  2F86               	goto	l90
   449  0769                     u140:
   450  0769                     l860:
   451                           
   452                           ;MainFile.c: 124:         {;MainFile.c: 125:             SendSMS(2);
   453  0769  3002               	movlw	2
   454  076A  00F3               	movwf	SendSMS@a
   455  076B  3000               	movlw	0
   456  076C  00F4               	movwf	SendSMS@a+1
   457  076D  120A  118A  278C  120A  118A  	fcall	_SendSMS
   458  0772                     l862:
   459                           
   460                           ;MainFile.c: 126:             RB4=1;
   461  0772  1283               	bcf	3,5	;RP0=0, select bank0
   462  0773  1303               	bcf	3,6	;RP1=0, select bank0
   463  0774  1606               	bsf	6,4	;volatile
   464  0775                     l864:
   465                           
   466                           ;MainFile.c: 127:             _delay((unsigned long)((1000)*(20000000/4000.0)));
   467  0775  301A               	movlw	26
   468  0776  00FA               	movwf	??_main+2
   469  0777  305E               	movlw	94
   470  0778  00F9               	movwf	??_main+1
   471  0779  306E               	movlw	110
   472  077A  00F8               	movwf	??_main
   473  077B                     u177:
   474  077B  0BF8               	decfsz	??_main,f
   475  077C  2F7B               	goto	u177
   476  077D  0BF9               	decfsz	??_main+1,f
   477  077E  2F7B               	goto	u177
   478  077F  0BFA               	decfsz	??_main+2,f
   479  0780  2F7B               	goto	u177
   480  0781  0000               	nop
   481  0782                     l866:
   482                           
   483                           ;MainFile.c: 128:             RB4=0;
   484  0782  1283               	bcf	3,5	;RP0=0, select bank0
   485  0783  1303               	bcf	3,6	;RP1=0, select bank0
   486  0784  1206               	bcf	6,4	;volatile
   487                           
   488                           ;MainFile.c: 129:         }
   489  0785  2F42               	goto	l850
   490  0786                     l90:	
   491                           ;MainFile.c: 130:         else
   492                           
   493                           
   494                           ;MainFile.c: 131:         {;MainFile.c: 132:             RB3=0;
   495  0786  1186               	bcf	6,3	;volatile
   496                           
   497                           ;MainFile.c: 133:             RB4=0;
   498  0787  1206               	bcf	6,4	;volatile
   499  0788  2F42               	goto	l850
   500  0789  120A  118A  2800   	ljmp	start
   501  078C                     __end_of_main:
   502                           
   503                           	psect	text1
   504  06EC                     __ptext1:	
   505 ;; *************** function _intialize_SIM900 *****************
   506 ;; Defined at:
   507 ;;		line 32 in file "MainFile.c"
   508 ;; Parameters:    Size  Location     Type
   509 ;;		None
   510 ;; Auto vars:     Size  Location     Type
   511 ;;		None
   512 ;; Return value:  Size  Location     Type
   513 ;;                  1    wreg      void 
   514 ;; Registers used:
   515 ;;		wreg
   516 ;; Tracked objects:
   517 ;;		On entry : 0/0
   518 ;;		On exit  : 0/0
   519 ;;		Unchanged: 0/0
   520 ;; Data sizes:     COMMON   BANK0   BANK1   BANK3   BANK2
   521 ;;      Params:         0       0       0       0       0
   522 ;;      Locals:         0       0       0       0       0
   523 ;;      Temps:          0       0       0       0       0
   524 ;;      Totals:         0       0       0       0       0
   525 ;;Total ram usage:        0 bytes
   526 ;; Hardware stack levels used:    1
   527 ;; This function calls:
   528 ;;		Nothing
   529 ;; This function is called by:
   530 ;;		_main
   531 ;; This function uses a non-reentrant model
   532 ;;
   533                           
   534                           
   535                           ;psect for function _intialize_SIM900
   536  06EC                     _intialize_SIM900:
   537  06EC                     l698:	
   538                           ;incstack = 0
   539                           ; Regs used in _intialize_SIM900: [wreg]
   540                           
   541                           
   542                           ;MainFile.c: 34:     TRISC6 = 0;
   543  06EC  1683               	bsf	3,5	;RP0=1, select bank1
   544  06ED  1303               	bcf	3,6	;RP1=0, select bank1
   545  06EE  1307               	bcf	7,6	;volatile
   546                           
   547                           ;MainFile.c: 35:     TRISC7 = 1;
   548  06EF  1787               	bsf	7,7	;volatile
   549  06F0                     l700:
   550                           
   551                           ;MainFile.c: 36:     SPBRG =((20000000/16)/9600)-1;
   552  06F0  3081               	movlw	129
   553  06F1  0099               	movwf	25	;volatile
   554  06F2                     l702:
   555                           
   556                           ;MainFile.c: 37:     BRGH = 1;
   557  06F2  1518               	bsf	24,2	;volatile
   558  06F3                     l704:
   559                           
   560                           ;MainFile.c: 38:     SYNC = 0;
   561  06F3  1218               	bcf	24,4	;volatile
   562  06F4                     l706:
   563                           
   564                           ;MainFile.c: 39:     SPEN = 1;
   565  06F4  1283               	bcf	3,5	;RP0=0, select bank0
   566  06F5  1303               	bcf	3,6	;RP1=0, select bank0
   567  06F6  1798               	bsf	24,7	;volatile
   568  06F7                     l708:
   569                           
   570                           ;MainFile.c: 40:     TXEN=1;
   571  06F7  1683               	bsf	3,5	;RP0=1, select bank1
   572  06F8  1303               	bcf	3,6	;RP1=0, select bank1
   573  06F9  1698               	bsf	24,5	;volatile
   574  06FA                     l710:
   575                           
   576                           ;MainFile.c: 41:     CREN=1;
   577  06FA  1283               	bcf	3,5	;RP0=0, select bank0
   578  06FB  1303               	bcf	3,6	;RP1=0, select bank0
   579  06FC  1618               	bsf	24,4	;volatile
   580  06FD                     l712:
   581                           
   582                           ;MainFile.c: 42:     TX9=0;
   583  06FD  1683               	bsf	3,5	;RP0=1, select bank1
   584  06FE  1303               	bcf	3,6	;RP1=0, select bank1
   585  06FF  1318               	bcf	24,6	;volatile
   586  0700                     l714:
   587                           
   588                           ;MainFile.c: 43:     RX9=0;
   589  0700  1283               	bcf	3,5	;RP0=0, select bank0
   590  0701  1303               	bcf	3,6	;RP1=0, select bank0
   591  0702  1318               	bcf	24,6	;volatile
   592  0703                     l49:
   593  0703  0008               	return
   594  0704                     __end_of_intialize_SIM900:
   595                           
   596                           	psect	text2
   597  078C                     __ptext2:	
   598 ;; *************** function _SendSMS *****************
   599 ;; Defined at:
   600 ;;		line 80 in file "MainFile.c"
   601 ;; Parameters:    Size  Location     Type
   602 ;;  a               2    3[COMMON] int 
   603 ;; Auto vars:     Size  Location     Type
   604 ;;		None
   605 ;; Return value:  Size  Location     Type
   606 ;;                  1    wreg      void 
   607 ;; Registers used:
   608 ;;		wreg, fsr0l, fsr0h, status,2, status,0, pclath, cstack
   609 ;; Tracked objects:
   610 ;;		On entry : 0/0
   611 ;;		On exit  : 0/0
   612 ;;		Unchanged: 0/0
   613 ;; Data sizes:     COMMON   BANK0   BANK1   BANK3   BANK2
   614 ;;      Params:         2       0       0       0       0
   615 ;;      Locals:         0       0       0       0       0
   616 ;;      Temps:          3       0       0       0       0
   617 ;;      Totals:         5       0       0       0       0
   618 ;;Total ram usage:        5 bytes
   619 ;; Hardware stack levels used:    1
   620 ;; Hardware stack levels required when called:    2
   621 ;; This function calls:
   622 ;;		__SIM900_print
   623 ;; This function is called by:
   624 ;;		_main
   625 ;; This function uses a non-reentrant model
   626 ;;
   627                           
   628                           
   629                           ;psect for function _SendSMS
   630  078C                     _SendSMS:
   631  078C                     l804:	
   632                           ;incstack = 0
   633                           ; Regs used in _SendSMS: [wreg-fsr0h+status,2+status,0+pclath+cstack]
   634                           
   635                           
   636                           ;MainFile.c: 80: void SendSMS(a);MainFile.c: 81: {;MainFile.c: 82:     if (a==1)
   637  078C  0373               	decf	SendSMS@a,w
   638  078D  0474               	iorwf	SendSMS@a+1,w
   639  078E  1D03               	btfss	3,2
   640  078F  2F91               	goto	u111
   641  0790  2F92               	goto	u110
   642  0791                     u111:
   643  0791  2F99               	goto	l808
   644  0792                     u110:
   645  0792                     l806:
   646                           
   647                           ;MainFile.c: 83:     {;MainFile.c: 84:    _SIM900_print("ATD6986951309;\r\n");
   648  0792  3001               	movlw	(low ((STR_1-__stringbase)| (0+32768)))& (0+255)
   649  0793  120A  118A  2704  120A  118A  	fcall	__SIM900_print
   650                           
   651                           ;MainFile.c: 85:     }
   652  0798  2FA6               	goto	l812
   653  0799                     l808:
   654  0799  3002               	movlw	2
   655  079A  0673               	xorwf	SendSMS@a,w
   656  079B  0474               	iorwf	SendSMS@a+1,w
   657  079C  1D03               	btfss	3,2
   658  079D  2F9F               	goto	u121
   659  079E  2FA0               	goto	u120
   660  079F                     u121:
   661  079F  2FA6               	goto	l812
   662  07A0                     u120:
   663  07A0                     l810:
   664                           
   665                           ;MainFile.c: 87:     {;MainFile.c: 88:    _SIM900_print("ATD6986951309;\r\n");
   666  07A0  3001               	movlw	(low ((STR_1-__stringbase)| (0+32768)))& (0+255)
   667  07A1  120A  118A  2704  120A  118A  	fcall	__SIM900_print
   668  07A6                     l812:
   669                           
   670                           ;MainFile.c: 90:     RB1=1;
   671  07A6  1283               	bcf	3,5	;RP0=0, select bank0
   672  07A7  1303               	bcf	3,6	;RP1=0, select bank0
   673  07A8  1486               	bsf	6,1	;volatile
   674  07A9                     l814:
   675                           
   676                           ;MainFile.c: 91:     _delay((unsigned long)((200)*(20000000/4000.0)));
   677  07A9  3006               	movlw	6
   678  07AA  00F7               	movwf	??_SendSMS+2
   679  07AB  3013               	movlw	19
   680  07AC  00F6               	movwf	??_SendSMS+1
   681  07AD  30AD               	movlw	173
   682  07AE  00F5               	movwf	??_SendSMS
   683  07AF                     u187:
   684  07AF  0BF5               	decfsz	??_SendSMS,f
   685  07B0  2FAF               	goto	u187
   686  07B1  0BF6               	decfsz	??_SendSMS+1,f
   687  07B2  2FAF               	goto	u187
   688  07B3  0BF7               	decfsz	??_SendSMS+2,f
   689  07B4  2FAF               	goto	u187
   690  07B5  2FB6               	nop2
   691  07B6                     l816:
   692                           
   693                           ;MainFile.c: 92:     RB1=0;
   694  07B6  1283               	bcf	3,5	;RP0=0, select bank0
   695  07B7  1303               	bcf	3,6	;RP1=0, select bank0
   696  07B8  1086               	bcf	6,1	;volatile
   697  07B9                     l818:
   698                           
   699                           ;MainFile.c: 93:     _delay((unsigned long)((200)*(20000000/4000.0)));
   700  07B9  3006               	movlw	6
   701  07BA  00F7               	movwf	??_SendSMS+2
   702  07BB  3013               	movlw	19
   703  07BC  00F6               	movwf	??_SendSMS+1
   704  07BD  30AD               	movlw	173
   705  07BE  00F5               	movwf	??_SendSMS
   706  07BF                     u197:
   707  07BF  0BF5               	decfsz	??_SendSMS,f
   708  07C0  2FBF               	goto	u197
   709  07C1  0BF6               	decfsz	??_SendSMS+1,f
   710  07C2  2FBF               	goto	u197
   711  07C3  0BF7               	decfsz	??_SendSMS+2,f
   712  07C4  2FBF               	goto	u197
   713  07C5  2FC6               	nop2
   714  07C6                     l820:
   715                           
   716                           ;MainFile.c: 94:     RB1=1;
   717  07C6  1283               	bcf	3,5	;RP0=0, select bank0
   718  07C7  1303               	bcf	3,6	;RP1=0, select bank0
   719  07C8  1486               	bsf	6,1	;volatile
   720  07C9                     l822:
   721                           
   722                           ;MainFile.c: 95:     _delay((unsigned long)((200)*(20000000/4000.0)));
   723  07C9  3006               	movlw	6
   724  07CA  00F7               	movwf	??_SendSMS+2
   725  07CB  3013               	movlw	19
   726  07CC  00F6               	movwf	??_SendSMS+1
   727  07CD  30AD               	movlw	173
   728  07CE  00F5               	movwf	??_SendSMS
   729  07CF                     u207:
   730  07CF  0BF5               	decfsz	??_SendSMS,f
   731  07D0  2FCF               	goto	u207
   732  07D1  0BF6               	decfsz	??_SendSMS+1,f
   733  07D2  2FCF               	goto	u207
   734  07D3  0BF7               	decfsz	??_SendSMS+2,f
   735  07D4  2FCF               	goto	u207
   736  07D5  2FD6               	nop2
   737  07D6                     l824:
   738                           
   739                           ;MainFile.c: 96:     RB1=0;
   740  07D6  1283               	bcf	3,5	;RP0=0, select bank0
   741  07D7  1303               	bcf	3,6	;RP1=0, select bank0
   742  07D8  1086               	bcf	6,1	;volatile
   743  07D9                     l826:
   744                           
   745                           ;MainFile.c: 97:     _delay((unsigned long)((200)*(20000000/4000.0)));
   746  07D9  3006               	movlw	6
   747  07DA  00F7               	movwf	??_SendSMS+2
   748  07DB  3013               	movlw	19
   749  07DC  00F6               	movwf	??_SendSMS+1
   750  07DD  30AD               	movlw	173
   751  07DE  00F5               	movwf	??_SendSMS
   752  07DF                     u217:
   753  07DF  0BF5               	decfsz	??_SendSMS,f
   754  07E0  2FDF               	goto	u217
   755  07E1  0BF6               	decfsz	??_SendSMS+1,f
   756  07E2  2FDF               	goto	u217
   757  07E3  0BF7               	decfsz	??_SendSMS+2,f
   758  07E4  2FDF               	goto	u217
   759  07E5  2FE6               	nop2
   760  07E6                     l828:
   761                           
   762                           ;MainFile.c: 98:     RB1=1;
   763  07E6  1283               	bcf	3,5	;RP0=0, select bank0
   764  07E7  1303               	bcf	3,6	;RP1=0, select bank0
   765  07E8  1486               	bsf	6,1	;volatile
   766  07E9                     l830:
   767                           
   768                           ;MainFile.c: 99:     _delay((unsigned long)((200)*(20000000/4000.0)));
   769  07E9  3006               	movlw	6
   770  07EA  00F7               	movwf	??_SendSMS+2
   771  07EB  3013               	movlw	19
   772  07EC  00F6               	movwf	??_SendSMS+1
   773  07ED  30AD               	movlw	173
   774  07EE  00F5               	movwf	??_SendSMS
   775  07EF                     u227:
   776  07EF  0BF5               	decfsz	??_SendSMS,f
   777  07F0  2FEF               	goto	u227
   778  07F1  0BF6               	decfsz	??_SendSMS+1,f
   779  07F2  2FEF               	goto	u227
   780  07F3  0BF7               	decfsz	??_SendSMS+2,f
   781  07F4  2FEF               	goto	u227
   782  07F5  2FF6               	nop2
   783  07F6                     l832:
   784                           
   785                           ;MainFile.c: 100:     RB1=0;
   786  07F6  1283               	bcf	3,5	;RP0=0, select bank0
   787  07F7  1303               	bcf	3,6	;RP1=0, select bank0
   788  07F8  1086               	bcf	6,1	;volatile
   789  07F9                     l82:
   790  07F9  0008               	return
   791  07FA                     __end_of_SendSMS:
   792                           
   793                           	psect	text3
   794  0704                     __ptext3:	
   795 ;; *************** function __SIM900_print *****************
   796 ;; Defined at:
   797 ;;		line 70 in file "MainFile.c"
   798 ;; Parameters:    Size  Location     Type
   799 ;;  ptr             1    wreg     PTR const unsigned char 
   800 ;;		 -> STR_2(17), STR_1(17), 
   801 ;; Auto vars:     Size  Location     Type
   802 ;;  ptr             1    2[COMMON] PTR const unsigned char 
   803 ;;		 -> STR_2(17), STR_1(17), 
   804 ;; Return value:  Size  Location     Type
   805 ;;                  1    wreg      void 
   806 ;; Registers used:
   807 ;;		wreg, fsr0l, fsr0h, status,2, status,0, pclath, cstack
   808 ;; Tracked objects:
   809 ;;		On entry : 0/0
   810 ;;		On exit  : 0/0
   811 ;;		Unchanged: 0/0
   812 ;; Data sizes:     COMMON   BANK0   BANK1   BANK3   BANK2
   813 ;;      Params:         0       0       0       0       0
   814 ;;      Locals:         1       0       0       0       0
   815 ;;      Temps:          1       0       0       0       0
   816 ;;      Totals:         2       0       0       0       0
   817 ;;Total ram usage:        2 bytes
   818 ;; Hardware stack levels used:    1
   819 ;; Hardware stack levels required when called:    1
   820 ;; This function calls:
   821 ;;		__SIM900_putch
   822 ;; This function is called by:
   823 ;;		_SendSMS
   824 ;; This function uses a non-reentrant model
   825 ;;
   826                           
   827                           
   828                           ;psect for function __SIM900_print
   829  0704                     __SIM900_print:
   830                           
   831                           ;incstack = 0
   832                           ; Regs used in __SIM900_print: [wreg-fsr0h+status,2+status,0+pclath+cstack]
   833                           ;__SIM900_print@ptr stored from wreg
   834  0704  00F2               	movwf	__SIM900_print@ptr
   835  0705                     l796:
   836                           
   837                           ;MainFile.c: 70: void _SIM900_print(unsigned const char *ptr);MainFile.c: 71: {;MainFile
      +                          .c: 72:     while (*ptr != 0)
   838  0705  2F16               	goto	l802
   839  0706                     l798:
   840                           
   841                           ;MainFile.c: 73:     {;MainFile.c: 74:         _SIM900_putch(*ptr++);
   842  0706  0872               	movf	__SIM900_print@ptr,w
   843  0707  0084               	movwf	4
   844  0708  120A  118A  2003  120A  118A  	fcall	stringdir
   845  070D  120A  118A  26E2  120A  118A  	fcall	__SIM900_putch
   846  0712                     l800:
   847  0712  3001               	movlw	1
   848  0713  00F1               	movwf	??__SIM900_print
   849  0714  0871               	movf	??__SIM900_print,w
   850  0715  07F2               	addwf	__SIM900_print@ptr,f
   851  0716                     l802:
   852                           
   853                           ;MainFile.c: 72:     while (*ptr != 0)
   854  0716  0872               	movf	__SIM900_print@ptr,w
   855  0717  0084               	movwf	4
   856  0718  120A  118A  2003  120A  118A  	fcall	stringdir
   857  071D  3A00               	xorlw	0
   858  071E  1D03               	skipz
   859  071F  2F21               	goto	u101
   860  0720  2F22               	goto	u100
   861  0721                     u101:
   862  0721  2F06               	goto	l798
   863  0722                     u100:
   864  0722                     l74:
   865  0722  0008               	return
   866  0723                     __end_of__SIM900_print:
   867                           
   868                           	psect	text4
   869  06E2                     __ptext4:	
   870 ;; *************** function __SIM900_putch *****************
   871 ;; Defined at:
   872 ;;		line 46 in file "MainFile.c"
   873 ;; Parameters:    Size  Location     Type
   874 ;;  bt              1    wreg     unsigned char 
   875 ;; Auto vars:     Size  Location     Type
   876 ;;  bt              1    0[COMMON] unsigned char 
   877 ;; Return value:  Size  Location     Type
   878 ;;                  1    wreg      void 
   879 ;; Registers used:
   880 ;;		wreg
   881 ;; Tracked objects:
   882 ;;		On entry : 0/0
   883 ;;		On exit  : 0/0
   884 ;;		Unchanged: 0/0
   885 ;; Data sizes:     COMMON   BANK0   BANK1   BANK3   BANK2
   886 ;;      Params:         0       0       0       0       0
   887 ;;      Locals:         1       0       0       0       0
   888 ;;      Temps:          0       0       0       0       0
   889 ;;      Totals:         1       0       0       0       0
   890 ;;Total ram usage:        1 bytes
   891 ;; Hardware stack levels used:    1
   892 ;; This function calls:
   893 ;;		Nothing
   894 ;; This function is called by:
   895 ;;		__SIM900_print
   896 ;;		_SIM900_send_string
   897 ;; This function uses a non-reentrant model
   898 ;;
   899                           
   900                           
   901                           ;psect for function __SIM900_putch
   902  06E2                     __SIM900_putch:
   903                           
   904                           ;incstack = 0
   905                           ; Regs used in __SIM900_putch: [wreg]
   906                           ;__SIM900_putch@bt stored from wreg
   907  06E2  00F0               	movwf	__SIM900_putch@bt
   908  06E3                     l686:
   909  06E3                     l52:	
   910                           ;MainFile.c: 46: void _SIM900_putch(char bt);MainFile.c: 47: {;MainFile.c: 48:     while
      +                          (!TXIF);
   911                           
   912  06E3  1283               	bcf	3,5	;RP0=0, select bank0
   913  06E4  1303               	bcf	3,6	;RP1=0, select bank0
   914  06E5  1E0C               	btfss	12,4	;volatile
   915  06E6  2EE8               	goto	u11
   916  06E7  2EE9               	goto	u10
   917  06E8                     u11:
   918  06E8  2EE3               	goto	l52
   919  06E9                     u10:
   920  06E9                     l688:
   921                           
   922                           ;MainFile.c: 49:     TXREG=bt;
   923  06E9  0870               	movf	__SIM900_putch@bt,w
   924  06EA  0099               	movwf	25	;volatile
   925  06EB                     l55:
   926  06EB  0008               	return
   927  06EC                     __end_of__SIM900_putch:
   928  007E                     btemp	set	126	;btemp
   929  007E                     wtemp0	set	126
   930                           
   931                           	psect	config
   932                           
   933                           ;Config register CONFIG @ 0x2007
   934                           ;	Oscillator Selection bits
   935                           ;	FOSC = HS, HS oscillator
   936                           ;	Watchdog Timer Enable bit
   937                           ;	WDTE = OFF, WDT disabled
   938                           ;	Power-up Timer Enable bit
   939                           ;	PWRTE = OFF, PWRT disabled
   940                           ;	Brown-out Reset Enable bit
   941                           ;	BOREN = OFF, BOR disabled
   942                           ;	Low-Voltage (Single-Supply) In-Circuit Serial Programming Enable bit
   943                           ;	LVP = OFF, RB3 is digital I/O, HV on MCLR must be used for programming
   944                           ;	Data EEPROM Memory Code Protection bit
   945                           ;	CPD = OFF, Data EEPROM code protection off
   946                           ;	Flash Program Memory Write Enable bits
   947                           ;	WRT = OFF, Write protection off; all program memory may be written to by EECON control
   948                           ;	In-Circuit Debugger Mode bit
   949                           ;	DEBUG = 0x1, unprogrammed default
   950                           ;	Flash Program Memory Code Protection bit
   951                           ;	CP = OFF, Code protection off
   952  2007                     	org	8199
   953  2007  3F3A               	dw	16186

Data Sizes:
    Strings     17
    Constant    0
    Data        0
    BSS         2
    Persistent  0
    Stack       0

Auto Spaces:
    Space          Size  Autos    Used
    COMMON           14     11      13
    BANK0            80      0       0
    BANK1            80      0       0
    BANK3            96      0       0
    BANK2            96      0       0

Pointer List with Targets:

    _SIM900_print@ptr	PTR const unsigned char  size(1) Largest target is 17
		 -> STR_2(CODE[17]), STR_1(CODE[17]), 


Critical Paths under _main in COMMON

    _main->_SendSMS
    _SendSMS->__SIM900_print
    __SIM900_print->__SIM900_putch

Critical Paths under _main in BANK0

    None.

Critical Paths under _main in BANK1

    None.

Critical Paths under _main in BANK3

    None.

Critical Paths under _main in BANK2

    None.

Call Graph Tables:

 ---------------------------------------------------------------------------------
 (Depth) Function   	        Calls       Base Space   Used Autos Params    Refs
 ---------------------------------------------------------------------------------
 (0) _main                                                 3     3      0     322
                                              8 COMMON     3     3      0
                            _SendSMS
                   _intialize_SIM900
 ---------------------------------------------------------------------------------
 (1) _intialize_SIM900                                     0     0      0       0
 ---------------------------------------------------------------------------------
 (1) _SendSMS                                              5     3      2     322
                                              3 COMMON     5     3      2
                      __SIM900_print
 ---------------------------------------------------------------------------------
 (2) __SIM900_print                                        2     2      0     126
                                              1 COMMON     2     2      0
                      __SIM900_putch
 ---------------------------------------------------------------------------------
 (3) __SIM900_putch                                        1     1      0      15
                                              0 COMMON     1     1      0
 ---------------------------------------------------------------------------------
 Estimated maximum stack depth 3
 ---------------------------------------------------------------------------------

 Call Graph Graphs:

 _main (ROOT)
   _SendSMS
     __SIM900_print
       __SIM900_putch
   _intialize_SIM900

 Address spaces:
Name               Size   Autos  Total    Cost      Usage
BITCOMMON            E      0       0       0        0.0%
EEDATA             100      0       0       0        0.0%
NULL                 0      0       0       0        0.0%
CODE                 0      0       0       0        0.0%
COMMON               E      B       D       1       92.9%
BITSFR0              0      0       0       1        0.0%
SFR0                 0      0       0       1        0.0%
BITSFR1              0      0       0       2        0.0%
SFR1                 0      0       0       2        0.0%
STACK                0      0       0       2        0.0%
ABS                  0      0       D       3        0.0%
BITBANK0            50      0       0       4        0.0%
BITSFR3              0      0       0       4        0.0%
SFR3                 0      0       0       4        0.0%
BANK0               50      0       0       5        0.0%
BITSFR2              0      0       0       5        0.0%
SFR2                 0      0       0       5        0.0%
BITBANK1            50      0       0       6        0.0%
BANK1               50      0       0       7        0.0%
BITBANK3            60      0       0       8        0.0%
BANK3               60      0       0       9        0.0%
BITBANK2            60      0       0      10        0.0%
BANK2               60      0       0      11        0.0%
DATA                 0      0       D      12        0.0%


Microchip Technology PIC Macro Assembler V2.30 build 20200825195618 
Symbol Table                                                                                   Fri May 14 03:30:31 2021

                        _a 007B                          pc 0002                         l52 06E3  
                       l55 06EB                         l49 0703                         l74 0722  
                       l82 07F9                         l90 0786                         l88 0765  
                       u10 06E9                         u11 06E8                         fsr 0004  
                      l700 06F0                        l710 06FA                        l702 06F2  
                      l800 0712                        l712 06FD                        l704 06F3  
                      l802 0716                        l810 07A0                        l714 0700  
                      l706 06F4                        l820 07C6                        l812 07A6  
                      l804 078C                        l708 06F7                        l830 07E9  
                      l822 07C9                        l814 07A9                        l806 0792  
                      l832 07F6                        l824 07D6                        l816 07B6  
                      l808 0799                        l840 072B                        l826 07D9  
                      l818 07B9                        l850 0742                        l842 072C  
                      l834 0723                        l828 07E6                        l860 0769  
                      l852 0748                        l844 0739                        l836 0727  
                      l686 06E3                        l862 0772                        l854 0751  
                      l846 073C                        l838 0728                        l688 06E9  
                      l864 0775                        l856 0754                        l848 073D  
                      l698 06EC                        l866 0782                        l858 0761  
                      l796 0705                        l798 0706                        _RB1 0031  
                      _RB3 0033                        _RB4 0034                        _RD1 0041  
                      _RD3 0043                        u100 0722                        u101 0721  
                      u110 0792                        u111 0791                        u120 07A0  
                      u121 079F                        u130 0748                        u131 0747  
                      u140 0769                        u141 0768                        u207 07CF  
                      u217 07DF                        u227 07EF                        u157 0732  
                      u167 075A                        u177 077B                        u187 07AF  
                      u197 07BF                        _RX9 00C6                        _TX9 04C6  
    __end_of__SIM900_print 0723                        fsr0 0004      __end_of__SIM900_putch 06EC  
                     STR_1 0009                       STR_2 0009                       _BRGH 04C2  
                     _CREN 00C4                       _RCIF 0065                       _OERR 00C1  
                     _SPEN 00C7                       _TXEN 04C5                       _TXIF 0064  
                     _SYNC 04C4                       _main 0723                       btemp 007E  
                     start 0000            __end_of_SendSMS 07FA                      ?_main 0070  
                    _RCREG 001A                      _SPBRG 0099                      _TRISB 0086  
                    _TRISD 0088                      _TXREG 0019                      pclath 000A  
                    status 0003                      wtemp0 007E  __size_of_intialize_SIM900 0018  
          __initialization 07FA               __end_of_main 078C                     ??_main 0078  
                   _TRISC6 043E                     _TRISC7 043F                  ??_SendSMS 0075  
  __end_of__initialization 07FC             __pcstackCOMMON 0070           _intialize_SIM900 06EC  
               __pmaintext 0723                 __stringtab 0003                    _SendSMS 078C  
   __size_of__SIM900_print 001F     __size_of__SIM900_putch 000A                    __ptext1 06EC  
                  __ptext2 078C                    __ptext3 0704                    __ptext4 06E2  
     end_of_initialization 07FC              __SIM900_print 0704              __SIM900_putch 06E2  
 __end_of_intialize_SIM900 0704             ?__SIM900_print 0070             ?__SIM900_putch 0070  
      start_initialization 07FA                __pbssCOMMON 007B                  ___latbits 0002  
                 ?_SendSMS 0073                  __pstrings 0003            ??__SIM900_print 0071  
          ??__SIM900_putch 0070                __stringbase 0008                   SendSMS@a 0073  
         __size_of_SendSMS 006E         __end_of__stringtab 0009          ?_intialize_SIM900 0070  
       ??_intialize_SIM900 0070              __size_of_main 0069                  stringcode 0003  
        __SIM900_print@ptr 0072                   stringdir 0003                   stringtab 0003  
         __SIM900_putch@bt 0070  
